MPASM 5.87  /HOME/JPSELVA/SYNCED/PROJETOS/PI   9-8-2022  19:57:35         PAGE  1


LOC  OBJECT CODE     LINE SOURCE TEXT
  VALUE

                      00001 #include "p10f200.inc"
                      00001         LIST
                      00002 
                      00003 ;==========================================================================
                      00004 ; Build date : Jan 06 2020
                      00005 ;  MPASM PIC10F200 processor include
                      00006 ; 
                      00007 ;  (c) Copyright 1999-2020 Microchip Technology, All rights reserved
                      00008 ;==========================================================================
                      00009 
                      00152         LIST
                      00002     
                      00003 ; configuration
0FFF   0FFB           00004     __CONFIG _WDT_OFF & _CP_OFF & _MCLRE_ON
                      00005     ORG 0x00
                      00006     
                      00007 ; arg registers
  00000010            00008 d1counter  EQU 0x10
  00000011            00009 d2counter  EQU 0x11
  00000012            00010 d1arg      EQU 0x12 
  00000013            00011 d2arg      EQU 0x13
  00000014            00012 periods    EQU 0x14
                      00013 
                      00014 ; main program
0000   0CDF           00015     MOVLW ~(1<<T0CS)
0001   0002           00016     OPTION
0002   0CFB           00017     MOVLW ~(1<<GP2)
0003   0006           00018     TRIS GPIO
0004                  00019 LOOP
0004   09??           00020     CALL PLAY_E2
0005   09??           00021     CALL PLAY_E2
0006   09??           00022     CALL PLAY_E2
0007   09??           00023     CALL PLAY_D#2
0008   09??           00024     CALL PLAY_D#2
0009   09??           00025     CALL PLAY_D#2
000A   09??           00026     CALL PLAY_H1
000B   09??           00027     CALL PLAY_H1
000C   09??           00028     CALL PLAY_H1
000D   0003           00029     SLEEP
000E   0A??           00030     GOTO LOOP
                      00031     
000F                  00032 PLAY_NOTE
000F   0C04           00033     MOVLW (1<<GP2)     ; toggle GP2
0010   01A6           00034     XORWF GPIO, F
0011   0212           00035     MOVF d1arg, W      ; load 1st delay
0012   0030           00036     MOVWF d1counter
0013   0213           00037     MOVF d2arg, W      ; load 2nd delay
0014   0031           00038     MOVWF d2counter
0015                  00039 DELAY                  ; half period delay
0015   02F0           00040     DECFSZ d1counter, F
0016   0A??           00041     GOTO DELAY
0017   02F1           00042     DECFSZ d2counter, F
0018   0A??           00043     GOTO DELAY
MPASM 5.87  /HOME/JPSELVA/SYNCED/PROJETOS/PI   9-8-2022  19:57:35         PAGE  2


LOC  OBJECT CODE     LINE SOURCE TEXT
  VALUE

0019   02F4           00044     DECFSZ periods, F
001A   0A??           00045     GOTO PLAY_NOTE
001B   0800           00046     RETLW 0
                      00047 
                      00048 ; note subroutines
001C                  00049 PLAY_E2
001C   0CFF           00050     MOVLW d'255'
001D   0034           00051     MOVWF periods
001E   0CFB           00052     MOVLW d'251'
001F   0032           00053     MOVWF d1arg
0020   0C01           00054     MOVLW d'1'
0021   0033           00055     MOVWF d2arg
0022   09??           00056     CALL PLAY_NOTE
0023   0800           00057     RETLW 0
                      00058  
0024                  00059 PLAY_D#2
0024   0CF0           00060     MOVLW d'240'
0025   0034           00061     MOVWF periods
0026   0C0A           00062     MOVLW d'10'
0027   0032           00063     MOVWF d1arg
0028   0C02           00064     MOVLW d'2'
0029   0033           00065     MOVWF d2arg
002A   09??           00066     CALL PLAY_NOTE
002B   0800           00067     RETLW 0
                      00068     
002C                  00069 PLAY_H1
002C   0CBF           00070     MOVLW d'191'
002D   0034           00071     MOVWF periods
002E   0C50           00072     MOVLW d'80'
002F   0032           00073     MOVWF d1arg
0030   0C02           00074     MOVLW d'2'
0031   0033           00075     MOVWF d2arg
0032   09??           00076     CALL PLAY_NOTE
0033   0800           00077     RETLW 0
                      00078     
0FFB                  00079     END
MPASM 5.87  /HOME/JPSELVA/SYNCED/PROJETOS/PI   9-8-2022  19:57:35         PAGE  3


SYMBOL TABLE
  LABEL                             VALUE 

C                                 00000000
CAL0                              00000001
CAL1                              00000002
CAL2                              00000003
CAL3                              00000004
CAL4                              00000005
CAL5                              00000006
CAL6                              00000007
DC                                00000001
DELAY                             00000015
F                                 00000001
FOSC4                             00000000
FSR                               00000004
GP0                               00000000
GP1                               00000001
GP2                               00000002
GP3                               00000003
GPIO                              00000006
GPWUF                             00000007
INDF                              00000000
LOOP                              00000004
NOT_GPPU                          00000006
NOT_GPWU                          00000007
NOT_PD                            00000003
NOT_TO                            00000004
OSCCAL                            00000005
PCL                               00000002
PLAY_D#2                          00000024
PLAY_E2                           0000001C
PLAY_H1                           0000002C
PLAY_NOTE                         0000000F
PS0                               00000000
PS1                               00000001
PS2                               00000002
PSA                               00000003
STATUS                            00000003
T0CS                              00000005
T0SE                              00000004
TMR0                              00000001
TRISIO0                           00000000
TRISIO1                           00000001
TRISIO2                           00000002
TRISIO3                           00000003
W                                 00000000
Z                                 00000002
_CONFIG                           00000FFF
_CP_OFF                           00000FFF
_CP_ON                            00000FF7
_IDLOC0                           00000100
_IDLOC1                           00000101
_IDLOC2                           00000102
_IDLOC3                           00000103
_IntRC_OSC                        00000FFF
MPASM 5.87  /HOME/JPSELVA/SYNCED/PROJETOS/PI   9-8-2022  19:57:35         PAGE  4


SYMBOL TABLE
  LABEL                             VALUE 

_MCLRE_OFF                        00000FEF
_MCLRE_ON                         00000FFF
_OSC_IntRC                        00000FFF
_WDTE_OFF                         00000FFB
_WDTE_ON                          00000FFF
_WDT_OFF                          00000FFB
_WDT_ON                           00000FFF
__10F200                          00000001
d1arg                             00000012
d1counter                         00000010
d2arg                             00000013
d2counter                         00000011
periods                           00000014

Errors   :     0
Warnings :     0 reported,     0 suppressed
Messages :     0 reported,     0 suppressed

