MPASM 5.87  /HOME/JPSB/SYNCED/PROJETOS/PIC/B   10-30-2022  18:31:52         PAGE  1


LOC  OBJECT CODE     LINE SOURCE TEXT
  VALUE

                      00001 #include "p10f200.inc"
                      00001         LIST
                      00002 
                      00003 ;==========================================================================
                      00004 ; Build date : Jan 06 2020
                      00005 ;  MPASM PIC10F200 processor include
                      00006 ; 
                      00007 ;  (c) Copyright 1999-2020 Microchip Technology, All rights reserved
                      00008 ;==========================================================================
                      00009 
                      00152         LIST
                      00002     
Warning[207]: Found label after column 1. (dreg1)
  00000010            00003     dreg1 EQU 10
Warning[207]: Found label after column 1. (dreg2)
  00000011            00004     dreg2 EQU 11
                      00005     
                      00006 ; configuration
0FFF   0FEB           00007     __CONFIG _WDT_OFF & _CP_OFF & _MCLRE_OFF
                      00008     ORG 0x000
                      00009 
                      00010 ; use GP2 pin as GPIO
0000   0C9F           00011     MOVLW ~((1 << T0CS) | (1 << NOT_GPPU))
0001   0002           00012     OPTION
                      00013 
                      00014 ; set GP2 as output
0002   0CFB           00015     MOVLW ~(1 << GP2)
0003   0006           00016     TRIS GPIO
                      00017 
                      00018 ; GP3 is always an input port
                      00019     
                      00020 ; main program
0004                  00021 LOOP
0004   0766           00022     BTFSS GPIO, GP3
0005   09??           00023     CALL TOG_ON_RELEASE
0006   0A??           00024     GOTO LOOP
                      00025 
                      00026 ; wait a little and toggle GP2 when GP3 is
                      00027 ; released
0007                  00028 TOG_ON_RELEASE
0007   09??           00029     CALL DELAY ; debouce press
0008                  00030 RELASE_LOOP
0008   0766           00031     BTFSS GPIO, GP3
0009   0A??           00032     GOTO RELASE_LOOP
000A   0C04           00033     MOVLW 1 << GP2
000B   01A6           00034     XORWF GPIO, F
000C   09??           00035     CALL DELAY ; debounce relase
000D   0800           00036     RETLW 0
                      00037     
                      00038 ; sleep for a while
000E                  00039 DELAY
000E   0C64           00040     MOVLW D'100'
000F   0031           00041     MOVWF dreg2
MPASM 5.87  /HOME/JPSB/SYNCED/PROJETOS/PIC/B   10-30-2022  18:31:52         PAGE  2


LOC  OBJECT CODE     LINE SOURCE TEXT
  VALUE

0010                  00042 DELAY_LOOP
0010   02F0           00043     DECFSZ dreg1, F
0011   0A??           00044     GOTO DELAY_LOOP
0012   02F1           00045     DECFSZ dreg2, F
0013   0A??           00046     GOTO DELAY_LOOP
0014   0800           00047     RETLW 0
                      00048     
Warning[205]: Found directive in column 1. (END)
0FEB                  00049 END 
MPASM 5.87  /HOME/JPSB/SYNCED/PROJETOS/PIC/B   10-30-2022  18:31:52         PAGE  3


SYMBOL TABLE
  LABEL                             VALUE 

C                                 00000000
CAL0                              00000001
CAL1                              00000002
CAL2                              00000003
CAL3                              00000004
CAL4                              00000005
CAL5                              00000006
CAL6                              00000007
DC                                00000001
DELAY                             0000000E
DELAY_LOOP                        00000010
F                                 00000001
FOSC4                             00000000
FSR                               00000004
GP0                               00000000
GP1                               00000001
GP2                               00000002
GP3                               00000003
GPIO                              00000006
GPWUF                             00000007
INDF                              00000000
LOOP                              00000004
NOT_GPPU                          00000006
NOT_GPWU                          00000007
NOT_PD                            00000003
NOT_TO                            00000004
OSCCAL                            00000005
PCL                               00000002
PS0                               00000000
PS1                               00000001
PS2                               00000002
PSA                               00000003
RELASE_LOOP                       00000008
STATUS                            00000003
T0CS                              00000005
T0SE                              00000004
TMR0                              00000001
TOG_ON_RELEASE                    00000007
TRISIO0                           00000000
TRISIO1                           00000001
TRISIO2                           00000002
TRISIO3                           00000003
W                                 00000000
Z                                 00000002
_CONFIG                           00000FFF
_CP_OFF                           00000FFF
_CP_ON                            00000FF7
_IDLOC0                           00000100
_IDLOC1                           00000101
_IDLOC2                           00000102
_IDLOC3                           00000103
_IntRC_OSC                        00000FFF
_MCLRE_OFF                        00000FEF
MPASM 5.87  /HOME/JPSB/SYNCED/PROJETOS/PIC/B   10-30-2022  18:31:52         PAGE  4


SYMBOL TABLE
  LABEL                             VALUE 

_MCLRE_ON                         00000FFF
_OSC_IntRC                        00000FFF
_WDTE_OFF                         00000FFB
_WDTE_ON                          00000FFF
_WDT_OFF                          00000FFB
_WDT_ON                           00000FFF
__10F200                          00000001
dreg1                             00000010
dreg2                             00000011

Errors   :     0
Warnings :     3 reported,     0 suppressed
Messages :     0 reported,     0 suppressed

